target datalayout = "e-m:e-p270:32:32-p271:32:32-p272:64:64-i64:64-i128:128-f80:128-n8:16:32:64-S128"
target triple = "x86_64-unknown-linux-gnu"

%struct.redisServer = type { i32, i64, ptr, ptr, ptr, i32, i32, i32, i32, i32, ptr, ptr, ptr, ptr, ptr, ptr, i32, i32, i64, i32, i32, i32, i32, ptr, i32, i32, [41 x i8], i32, i64, i32, i32, i32, ptr, ptr, i32, i32, i64, ptr, ptr, ptr, ptr, [2 x i32], i32, i32, i32, i32, i32, [16 x ptr], i32, ptr, ptr, i32, [8 x %struct.connListener], i32, %struct.connListener, ptr, ptr, ptr, ptr, ptr, ptr, ptr, ptr, ptr, ptr, i32, ptr, i32, ptr, [3 x %struct.pause_event], [256 x i8], ptr, i64, i32, i32, i32, i32, i64, i32, i32, i32, i32, i32, i64, i64, i64, i64, i64, i64, i64, i64, i64, double, i64, i64, i64, i64, i64, i64, i64, i64, i64, i64, i64, i64, i64, i64, i64, i64, i64, i64, i64, i64, double, i64, i64, i64, i64, i64, ptr, i64, i64, i64, %struct.malloc_stats, i64, i64, i64, i64, i64, i64, i64, i64, i64, i64, i64, i64, double, [4 x i64], i64, i64, i64, i64, i64, i64, i64, i64, i64, i64, [7 x %struct.anon], i64, i64, i64, i64, i64, i64, [4 x %struct.durationStats], i32, i32, i32, i32, i32, i32, i32, i32, i32, i32, i64, i32, i32, i32, i32, i64, i64, i32, i32, i32, i32, i32, ptr, [3 x %struct.clientBufferLimitsConfig], i32, i32, ptr, i32, i32, i32, i32, ptr, ptr, i32, i32, i64, i64, i64, i64, i64, i32, i32, ptr, i32, i32, i64, i64, i64, i64, i64, i32, i32, i64, i32, i32, i32, i32, i32, i32, i32, i32, ptr, i32, i64, i64, i64, i64, ptr, i32, ptr, i32, i32, i32, i64, i64, i64, i64, i32, i32, i32, i32, i32, i32, ptr, i32, i32, ptr, i32, i32, i32, [2 x i32], i32, %struct.redisOpArray, i32, ptr, i32, ptr, i32, i32, i32, i32, i32, i32, i32, [41 x i8], [41 x i8], i64, i64, i64, i64, i32, i32, ptr, i64, i64, i64, i32, i32, i32, i32, i32, i32, i32, i64, ptr, ptr, ptr, ptr, i32, i32, ptr, ptr, i32, i32, i64, i64, i64, ptr, i32, ptr, i64, i32, i32, i32, i64, i32, i32, i32, i32, ptr, i32, i32, [41 x i8], i64, i32, ptr, i32, i32, i64, i64, i32, i32, i32, i32, i32, i64, [3 x i32], i32, i32, i32, [9 x i32], ptr, ptr, i32, i64, ptr, ptr, i32, i32, i32, i32, i64, i64, i64, i64, i64, i64, i64, i64, i64, i64, i32, i32, i64, i64, i32, i64, i64, i64, i64, i64, ptr, ptr, i32, ptr, i32, i32, i32, i64, i64, ptr, ptr, i32, i32, i32, i32, i32, ptr, ptr, ptr, i32, i32, i32, i32, i32, i32, i32, i64, i32, i64, i32, i32, i32, i32, i32, i32, i32, i64, ptr, ptr, i64, ptr, i32, %struct.aclInfo, i32, i64, i32, i32, i32, %struct.redisTLSContextConfig, ptr, ptr, ptr, ptr, ptr, i64, i32, ptr, i32, i32, i32, i64, i32, ptr }
%struct.connListener = type { [16 x i32], i32, ptr, i32, i32, ptr, ptr }
%struct.pause_event = type { i32, i64 }
%struct.malloc_stats = type { i64, i64, i64, i64, i64 }
%struct.anon = type { i64, i64, [16 x i64], i32 }
%struct.durationStats = type { i64, i64, i64 }
%struct.clientBufferLimitsConfig = type { i64, i64, i64 }
%struct.redisOpArray = type { ptr, i32, i32 }
%struct.aclInfo = type { i64, i64, i64, i64 }
%struct.redisTLSContextConfig = type { ptr, ptr, ptr, ptr, ptr, ptr, ptr, ptr, ptr, ptr, ptr, ptr, i32, i32, i32, i32 }

@server = external global %struct.redisServer, align 8
@.str.269 = private unnamed_addr constant [16 x i8] c"/proc/self/maps\00", align 1
@.str.270 = private unnamed_addr constant [2 x i8] c"r\00", align 1
@.str.271 = private unnamed_addr constant [6 x i8] c"stack\00", align 1
@.str.272 = private unnamed_addr constant [5 x i8] c"vdso\00", align 1
@.str.273 = private unnamed_addr constant [9 x i8] c"vsyscall\00", align 1
@.str.274 = private unnamed_addr constant [6 x i8] c"00:00\00", align 1
@.str.275 = private unnamed_addr constant [3 x i8] c"rw\00", align 1
@.str.276 = private unnamed_addr constant [53 x i8] c"*** Preparing to test memory region %lx (%lu bytes)\0A\00", align 1
@.str.277 = private unnamed_addr constant [2 x i8] c".\00", align 1
@.str.278 = private unnamed_addr constant [2 x i8] c"E\00", align 1
@.str.279 = private unnamed_addr constant [2 x i8] c"O\00", align 1
@.str.280 = private unnamed_addr constant [2 x i8] c"\0A\00", align 1

; Function Attrs: nounwind uwtable
define dso_local void @closeDirectLogFiledes(i32 noundef %fd) #0 {
entry:
  %fd.addr = alloca i32, align 4
  %log_to_stdout = alloca i32, align 4
  store i32 %fd, ptr %fd.addr, align 4
  %0 = load ptr, ptr getelementptr inbounds (%struct.redisServer, ptr @server, i32 0, i32 250), align 8
  %arrayidx = getelementptr inbounds i8, ptr %0, i64 0
  %1 = load i8, ptr %arrayidx, align 1
  %conv = sext i8 %1 to i32
  %cmp = icmp eq i32 %conv, 0
  %conv1 = zext i1 %cmp to i32
  store i32 %conv1, ptr %log_to_stdout, align 4
  %2 = load i32, ptr %log_to_stdout, align 4
  %tobool = icmp ne i32 %2, 0
  br i1 %tobool, label %if.end, label %if.then

if.then:                                          ; preds = %entry
  %3 = load i32, ptr %fd.addr, align 4
  %call = call i32 @close(i32 noundef %3)
  br label %if.end

if.end:                                           ; preds = %if.then, %entry
  ret void
}

; Function Attrs: nounwind uwtable
define dso_local i32 @openDirectLogFiledes() #0 {
entry:
  %log_to_stdout = alloca i32, align 4
  %fd = alloca i32, align 4
  %0 = load ptr, ptr getelementptr inbounds (%struct.redisServer, ptr @server, i32 0, i32 250), align 8
  %arrayidx = getelementptr inbounds i8, ptr %0, i64 0
  %1 = load i8, ptr %arrayidx, align 1
  %conv = sext i8 %1 to i32
  %cmp = icmp eq i32 %conv, 0
  %conv1 = zext i1 %cmp to i32
  store i32 %conv1, ptr %log_to_stdout, align 4
  %2 = load i32, ptr %log_to_stdout, align 4
  %tobool = icmp ne i32 %2, 0
  br i1 %tobool, label %cond.true, label %cond.false

cond.true:                                        ; preds = %entry
  br label %cond.end

cond.false:                                       ; preds = %entry
  %3 = load ptr, ptr getelementptr inbounds (%struct.redisServer, ptr @server, i32 0, i32 250), align 8
  %call = call i32 (ptr, i32, ...) @open64(ptr noundef %3, i32 noundef 1089, i32 noundef 420)
  br label %cond.end

cond.end:                                         ; preds = %cond.false, %cond.true
  %cond = phi i32 [ 1, %cond.true ], [ %call, %cond.false ]
  store i32 %cond, ptr %fd, align 4
  %4 = load i32, ptr %fd, align 4
  ret i32 %4
}

; Function Attrs: nounwind uwtable
define dso_local i32 @memtest_test_linux_anonymous_maps() #0 {
entry:
  %retval = alloca i32, align 4
  %fp = alloca ptr, align 8
  %line = alloca [1024 x i8], align 16
  %logbuf = alloca [1024 x i8], align 16
  %start_addr = alloca i64, align 8
  %end_addr = alloca i64, align 8
  %size = alloca i64, align 8
  %start_vect = alloca [128 x i64], align 16
  %size_vect = alloca [128 x i64], align 16
  %regions = alloca i32, align 4
  %j = alloca i32, align 4
  %fd = alloca i32, align 4
  %start = alloca ptr, align 8
  %end = alloca ptr, align 8
  %p = alloca ptr, align 8
  %errors = alloca i32, align 4
  store i32 0, ptr %regions, align 4
  %call = call i32 @openDirectLogFiledes()
  store i32 %call, ptr %fd, align 4
  %0 = load i32, ptr %fd, align 4
  %tobool = icmp ne i32 %0, 0
  br i1 %tobool, label %if.end, label %if.then

if.then:                                          ; preds = %entry
  store i32 0, ptr %retval, align 4
  br label %return

if.end:                                           ; preds = %entry
  %call1 = call noalias ptr @fopen64(ptr noundef @.str.269, ptr noundef @.str.270)
  store ptr %call1, ptr %fp, align 8
  %1 = load ptr, ptr %fp, align 8
  %tobool2 = icmp ne ptr %1, null
  br i1 %tobool2, label %if.end4, label %if.then3

if.then3:                                         ; preds = %if.end
  %2 = load i32, ptr %fd, align 4
  call void @closeDirectLogFiledes(i32 noundef %2)
  store i32 0, ptr %retval, align 4
  br label %return

if.end4:                                          ; preds = %if.end
  br label %while.cond

while.cond:                                       ; preds = %if.end49, %if.then31, %if.then27, %if.then23, %if.then13, %if.then9, %if.end4
  %arraydecay = getelementptr inbounds [1024 x i8], ptr %line, i64 0, i64 0
  %3 = load ptr, ptr %fp, align 8
  %call5 = call ptr @fgets(ptr noundef %arraydecay, i32 noundef 1024, ptr noundef %3)
  %cmp = icmp ne ptr %call5, null
  br i1 %cmp, label %while.body, label %while.end

while.body:                                       ; preds = %while.cond
  %arraydecay6 = getelementptr inbounds [1024 x i8], ptr %line, i64 0, i64 0
  store ptr %arraydecay6, ptr %p, align 8
  %4 = load ptr, ptr %p, align 8
  store ptr %4, ptr %start, align 8
  %5 = load ptr, ptr %p, align 8
  %call7 = call ptr @strchr(ptr noundef %5, i32 noundef 45) #13
  store ptr %call7, ptr %p, align 8
  %6 = load ptr, ptr %p, align 8
  %tobool8 = icmp ne ptr %6, null
  br i1 %tobool8, label %if.end10, label %if.then9

if.then9:                                         ; preds = %while.body
  br label %while.cond, !llvm.loop !32

if.end10:                                         ; preds = %while.body
  %7 = load ptr, ptr %p, align 8
  %incdec.ptr = getelementptr inbounds i8, ptr %7, i32 1
  store ptr %incdec.ptr, ptr %p, align 8
  store i8 0, ptr %7, align 1
  %8 = load ptr, ptr %p, align 8
  store ptr %8, ptr %end, align 8
  %9 = load ptr, ptr %p, align 8
  %call11 = call ptr @strchr(ptr noundef %9, i32 noundef 32) #13
  store ptr %call11, ptr %p, align 8
  %10 = load ptr, ptr %p, align 8
  %tobool12 = icmp ne ptr %10, null
  br i1 %tobool12, label %if.end14, label %if.then13

if.then13:                                        ; preds = %if.end10
  br label %while.cond, !llvm.loop !32

if.end14:                                         ; preds = %if.end10
  %11 = load ptr, ptr %p, align 8
  %incdec.ptr15 = getelementptr inbounds i8, ptr %11, i32 1
  store ptr %incdec.ptr15, ptr %p, align 8
  store i8 0, ptr %11, align 1
  %12 = load ptr, ptr %p, align 8
  %call16 = call ptr @strstr(ptr noundef %12, ptr noundef @.str.271) #13
  %tobool17 = icmp ne ptr %call16, null
  br i1 %tobool17, label %if.then23, label %lor.lhs.false

lor.lhs.false:                                    ; preds = %if.end14
  %13 = load ptr, ptr %p, align 8
  %call18 = call ptr @strstr(ptr noundef %13, ptr noundef @.str.272) #13
  %tobool19 = icmp ne ptr %call18, null
  br i1 %tobool19, label %if.then23, label %lor.lhs.false20

lor.lhs.false20:                                  ; preds = %lor.lhs.false
  %14 = load ptr, ptr %p, align 8
  %call21 = call ptr @strstr(ptr noundef %14, ptr noundef @.str.273) #13
  %tobool22 = icmp ne ptr %call21, null
  br i1 %tobool22, label %if.then23, label %if.end24

if.then23:                                        ; preds = %lor.lhs.false20, %lor.lhs.false, %if.end14
  br label %while.cond, !llvm.loop !32

if.end24:                                         ; preds = %lor.lhs.false20
  %15 = load ptr, ptr %p, align 8
  %call25 = call ptr @strstr(ptr noundef %15, ptr noundef @.str.274) #13
  %tobool26 = icmp ne ptr %call25, null
  br i1 %tobool26, label %if.end28, label %if.then27

if.then27:                                        ; preds = %if.end24
  br label %while.cond, !llvm.loop !32

if.end28:                                         ; preds = %if.end24
  %16 = load ptr, ptr %p, align 8
  %call29 = call ptr @strstr(ptr noundef %16, ptr noundef @.str.275) #13
  %tobool30 = icmp ne ptr %call29, null
  br i1 %tobool30, label %if.end32, label %if.then31

if.then31:                                        ; preds = %if.end28
  br label %while.cond, !llvm.loop !32

if.end32:                                         ; preds = %if.end28
  %17 = load ptr, ptr %start, align 8
  %call33 = call i64 @strtoul(ptr noundef %17, ptr noundef null, i32 noundef 16) #14
  store i64 %call33, ptr %start_addr, align 8
  %18 = load ptr, ptr %end, align 8
  %call34 = call i64 @strtoul(ptr noundef %18, ptr noundef null, i32 noundef 16) #14
  store i64 %call34, ptr %end_addr, align 8
  %19 = load i64, ptr %end_addr, align 8
  %20 = load i64, ptr %start_addr, align 8
  %sub = sub i64 %19, %20
  store i64 %sub, ptr %size, align 8
  %21 = load i64, ptr %start_addr, align 8
  %22 = load i32, ptr %regions, align 4
  %idxprom = sext i32 %22 to i64
  %arrayidx = getelementptr inbounds [128 x i64], ptr %start_vect, i64 0, i64 %idxprom
  store i64 %21, ptr %arrayidx, align 8
  %23 = load i64, ptr %size, align 8
  %24 = load i32, ptr %regions, align 4
  %idxprom35 = sext i32 %24 to i64
  %arrayidx36 = getelementptr inbounds [128 x i64], ptr %size_vect, i64 0, i64 %idxprom35
  store i64 %23, ptr %arrayidx36, align 8
  %arraydecay37 = getelementptr inbounds [1024 x i8], ptr %logbuf, i64 0, i64 0
  %25 = load i32, ptr %regions, align 4
  %idxprom38 = sext i32 %25 to i64
  %arrayidx39 = getelementptr inbounds [128 x i64], ptr %start_vect, i64 0, i64 %idxprom38
  %26 = load i64, ptr %arrayidx39, align 8
  %27 = load i32, ptr %regions, align 4
  %idxprom40 = sext i32 %27 to i64
  %arrayidx41 = getelementptr inbounds [128 x i64], ptr %size_vect, i64 0, i64 %idxprom40
  %28 = load i64, ptr %arrayidx41, align 8
  %call42 = call i32 (ptr, i64, ptr, ...) @snprintf(ptr noundef %arraydecay37, i64 noundef 1024, ptr noundef @.str.276, i64 noundef %26, i64 noundef %28) #14
  %29 = load i32, ptr %fd, align 4
  %arraydecay43 = getelementptr inbounds [1024 x i8], ptr %logbuf, i64 0, i64 0
  %arraydecay44 = getelementptr inbounds [1024 x i8], ptr %logbuf, i64 0, i64 0
  %call45 = call i64 @strlen(ptr noundef %arraydecay44) #13
  %call46 = call i64 @write(i32 noundef %29, ptr noundef %arraydecay43, i64 noundef %call45)
  %cmp47 = icmp eq i64 %call46, -1
  br i1 %cmp47, label %if.then48, label %if.end49

if.then48:                                        ; preds = %if.end32
  br label %if.end49

if.end49:                                         ; preds = %if.then48, %if.end32
  %30 = load i32, ptr %regions, align 4
  %inc = add nsw i32 %30, 1
  store i32 %inc, ptr %regions, align 4
  br label %while.cond, !llvm.loop !32

while.end:                                        ; preds = %while.cond
  store i32 0, ptr %errors, align 4
  store i32 0, ptr %j, align 4
  br label %for.cond

for.cond:                                         ; preds = %for.inc, %while.end
  %31 = load i32, ptr %j, align 4
  %32 = load i32, ptr %regions, align 4
  %cmp50 = icmp slt i32 %31, %32
  br i1 %cmp50, label %for.body, label %for.end

for.body:                                         ; preds = %for.cond
  %33 = load i32, ptr %fd, align 4
  %call51 = call i64 @write(i32 noundef %33, ptr noundef @.str.277, i64 noundef 1)
  %cmp52 = icmp eq i64 %call51, -1
  br i1 %cmp52, label %if.then53, label %if.end54

if.then53:                                        ; preds = %for.body
  br label %if.end54

if.end54:                                         ; preds = %if.then53, %for.body
  %34 = load i32, ptr %j, align 4
  %idxprom55 = sext i32 %34 to i64
  %arrayidx56 = getelementptr inbounds [128 x i64], ptr %start_vect, i64 0, i64 %idxprom55
  %35 = load i64, ptr %arrayidx56, align 8
  %36 = inttoptr i64 %35 to ptr
  %37 = load i32, ptr %j, align 4
  %idxprom57 = sext i32 %37 to i64
  %arrayidx58 = getelementptr inbounds [128 x i64], ptr %size_vect, i64 0, i64 %idxprom57
  %38 = load i64, ptr %arrayidx58, align 8
  %call59 = call i32 @memtest_preserving_test(ptr noundef %36, i64 noundef %38, i32 noundef 1)
  %39 = load i32, ptr %errors, align 4
  %add = add nsw i32 %39, %call59
  store i32 %add, ptr %errors, align 4
  %40 = load i32, ptr %fd, align 4
  %41 = load i32, ptr %errors, align 4
  %tobool60 = icmp ne i32 %41, 0
  %cond = select i1 %tobool60, ptr @.str.278, ptr @.str.279
  %call61 = call i64 @write(i32 noundef %40, ptr noundef %cond, i64 noundef 1)
  %cmp62 = icmp eq i64 %call61, -1
  br i1 %cmp62, label %if.then63, label %if.end64

if.then63:                                        ; preds = %if.end54
  br label %if.end64

if.end64:                                         ; preds = %if.then63, %if.end54
  br label %for.inc

for.inc:                                          ; preds = %if.end64
  %42 = load i32, ptr %j, align 4
  %inc65 = add nsw i32 %42, 1
  store i32 %inc65, ptr %j, align 4
  br label %for.cond, !llvm.loop !33

for.end:                                          ; preds = %for.cond
  %43 = load i32, ptr %fd, align 4
  %call66 = call i64 @write(i32 noundef %43, ptr noundef @.str.280, i64 noundef 1)
  %cmp67 = icmp eq i64 %call66, -1
  br i1 %cmp67, label %if.then68, label %if.end69

if.then68:                                        ; preds = %for.end
  br label %if.end69

if.end69:                                         ; preds = %if.then68, %for.end
  %44 = load ptr, ptr %fp, align 8
  %call70 = call i32 @fclose(ptr noundef %44)
  %45 = load i32, ptr %fd, align 4
  call void @closeDirectLogFiledes(i32 noundef %45)
  %46 = load i32, ptr %errors, align 4
  store i32 %46, ptr %retval, align 4
  br label %return

return:                                           ; preds = %if.end69, %if.then3, %if.then
  %47 = load i32, ptr %retval, align 4
  ret i32 %47
}