; Function Attrs: nounwind uwtable
define dso_local i32 @memtest_test_linux_anonymous_maps() local_unnamed_addr #0 {
entry:
  %line = alloca [1024 x i8], align 16
  %logbuf = alloca [1024 x i8], align 16
  %start_vect = alloca [128 x i64], align 16
  %size_vect = alloca [128 x i64], align 16
  %0 = load ptr, ptr getelementptr inbounds (%struct.redisServer, ptr @server, i64 0, i32 250), align 8
  %1 = load i8, ptr %0, align 1
  %cmp.i = icmp eq i8 %1, 0
  br i1 %cmp.i, label %if.end, label %openDirectLogFiledes.exit

openDirectLogFiledes.exit:                        ; preds = %entry
  %call.i = tail call i32 (ptr, i32, ...) @open64(ptr noundef nonnull %0, i32 noundef 1089, i32 noundef 420) #22
  %tobool.not = icmp eq i32 %call.i, 0
  br i1 %tobool.not, label %return, label %if.end

if.end:                                           ; preds = %entry, %openDirectLogFiledes.exit
  %cond.i40 = phi i32 [ %call.i, %openDirectLogFiledes.exit ], [ 1, %entry ]
  %call1 = tail call noalias ptr @fopen64(ptr noundef nonnull @.str.269, ptr noundef nonnull @.str.270)
  %tobool2.not = icmp eq ptr %call1, null
  br i1 %tobool2.not, label %if.then3, label %while.cond.preheader

while.cond.preheader:                             ; preds = %if.end
  %call54144 = call ptr @fgets(ptr noundef nonnull %line, i32 noundef 1024, ptr noundef nonnull %call1)
  %cmp.not4245 = icmp eq ptr %call54144, null
  br i1 %cmp.not4245, label %for.end, label %while.body.lr.ph

if.then3:                                         ; preds = %if.end
  %2 = load ptr, ptr getelementptr inbounds (%struct.redisServer, ptr @server, i64 0, i32 250), align 8
  %3 = load i8, ptr %2, align 1
  %cmp.i32 = icmp eq i8 %3, 0
  br i1 %cmp.i32, label %return, label %if.then.i

if.then.i:                                        ; preds = %if.then3
  %call.i33 = tail call i32 @close(i32 noundef %cond.i40) #22
  br label %return

for.cond.preheader:                               ; preds = %if.end32, %while.cond.backedge
  %indvars.iv.next.lcssa.sink = phi i64 [ %indvars.iv, %while.cond.backedge ], [ %indvars.iv.next, %if.end32 ]
  %4 = trunc i64 %indvars.iv.next.lcssa.sink to i32
  %cmp5048 = icmp sgt i32 %4, 0
  br i1 %cmp5048, label %for.body.preheader, label %for.end

for.body.preheader:                               ; preds = %for.cond.preheader
  %wide.trip.count = and i64 %indvars.iv.next.lcssa.sink, 2147483647
  br label %for.body

while.body:                                       ; preds = %while.body.lr.ph, %while.cond.backedge
  %call7 = call ptr @strchr(ptr noundef nonnull dereferenceable(1) %line, i32 noundef 45) #24
  %tobool8.not = icmp eq ptr %call7, null
  br i1 %tobool8.not, label %while.cond.backedge, label %if.end10

if.end10:                                         ; preds = %while.body
  %incdec.ptr = getelementptr inbounds i8, ptr %call7, i64 1
  store i8 0, ptr %call7, align 1
  %call11 = call ptr @strchr(ptr noundef nonnull dereferenceable(1) %incdec.ptr, i32 noundef 32) #24
  %tobool12.not = icmp eq ptr %call11, null
  br i1 %tobool12.not, label %while.cond.backedge, label %if.end14

if.end14:                                         ; preds = %if.end10
  %incdec.ptr15 = getelementptr inbounds i8, ptr %call11, i64 1
  store i8 0, ptr %call11, align 1
  %call16 = call ptr @strstr(ptr noundef nonnull dereferenceable(1) %incdec.ptr15, ptr noundef nonnull dereferenceable(1) @.str.271) #24
  %tobool17.not = icmp eq ptr %call16, null
  br i1 %tobool17.not, label %lor.lhs.false, label %while.cond.backedge

lor.lhs.false:                                    ; preds = %if.end14
  %call18 = call ptr @strstr(ptr noundef nonnull dereferenceable(1) %incdec.ptr15, ptr noundef nonnull dereferenceable(1) @.str.272) #24
  %tobool19.not = icmp eq ptr %call18, null
  br i1 %tobool19.not, label %lor.lhs.false20, label %while.cond.backedge

lor.lhs.false20:                                  ; preds = %lor.lhs.false
  %call21 = call ptr @strstr(ptr noundef nonnull dereferenceable(1) %incdec.ptr15, ptr noundef nonnull dereferenceable(1) @.str.273) #24
  %tobool22.not = icmp eq ptr %call21, null
  br i1 %tobool22.not, label %if.end24, label %while.cond.backedge

while.cond.backedge:                              ; preds = %if.end14, %lor.lhs.false, %lor.lhs.false20, %while.body, %if.end10, %if.end24, %if.end28
  %call5 = call ptr @fgets(ptr noundef nonnull %line, i32 noundef 1024, ptr noundef nonnull %call1)
  %cmp.not = icmp eq ptr %call5, null
  br i1 %cmp.not, label %for.cond.preheader, label %while.body, !llvm.loop !36

if.end24:                                         ; preds = %lor.lhs.false20
  %call25 = call ptr @strstr(ptr noundef nonnull dereferenceable(1) %incdec.ptr15, ptr noundef nonnull dereferenceable(1) @.str.274) #24
  %tobool26.not = icmp eq ptr %call25, null
  br i1 %tobool26.not, label %while.cond.backedge, label %if.end28

if.end28:                                         ; preds = %if.end24
  %call29 = call ptr @strstr(ptr noundef nonnull dereferenceable(1) %incdec.ptr15, ptr noundef nonnull dereferenceable(1) @.str.275) #24
  %tobool30.not = icmp eq ptr %call29, null
  br i1 %tobool30.not, label %while.cond.backedge, label %if.end32

if.end32:                                         ; preds = %if.end28
  %call33 = call i64 @strtoul(ptr nocapture noundef nonnull %line, ptr noundef null, i32 noundef 16) #22
  %call34 = call i64 @strtoul(ptr nocapture noundef nonnull %incdec.ptr, ptr noundef null, i32 noundef 16) #22
  %sub = sub i64 %call34, %call33
  %arrayidx = getelementptr inbounds [128 x i64], ptr %start_vect, i64 0, i64 %indvars.iv
  store i64 %call33, ptr %arrayidx, align 8
  %arrayidx36 = getelementptr inbounds [128 x i64], ptr %size_vect, i64 0, i64 %indvars.iv
  store i64 %sub, ptr %arrayidx36, align 8
  %call42 = call i32 (ptr, i64, ptr, ...) @snprintf(ptr noundef nonnull dereferenceable(1) %logbuf, i64 noundef 1024, ptr noundef nonnull @.str.276, i64 noundef %call33, i64 noundef %sub) #22
  %call45 = call i64 @strlen(ptr noundef nonnull dereferenceable(1) %logbuf) #24
  %call46 = call i64 @write(i32 noundef %cond.i40, ptr noundef nonnull %logbuf, i64 noundef %call45) #22
  %indvars.iv.next = add nuw nsw i64 %indvars.iv, 1
  %call541 = call ptr @fgets(ptr noundef nonnull %line, i32 noundef 1024, ptr noundef nonnull %call1)
  %cmp.not42 = icmp eq ptr %call541, null
  br i1 %cmp.not42, label %for.cond.preheader, label %while.body.lr.ph, !llvm.loop !36

while.body.lr.ph:                                 ; preds = %while.cond.preheader, %if.end32
  %indvars.iv = phi i64 [ %indvars.iv.next, %if.end32 ], [ 0, %while.cond.preheader ]
  br label %while.body

for.body:                                         ; preds = %for.body.preheader, %for.body
  %indvars.iv55 = phi i64 [ 0, %for.body.preheader ], [ %indvars.iv.next56, %for.body ]
  %errors.050 = phi i32 [ 0, %for.body.preheader ], [ %add, %for.body ]
  %call51 = call i64 @write(i32 noundef %cond.i40, ptr noundef nonnull @.str.277, i64 noundef 1) #22
  %arrayidx56 = getelementptr inbounds [128 x i64], ptr %start_vect, i64 0, i64 %indvars.iv55
  %5 = load i64, ptr %arrayidx56, align 8
  %6 = inttoptr i64 %5 to ptr
  %arrayidx58 = getelementptr inbounds [128 x i64], ptr %size_vect, i64 0, i64 %indvars.iv55
  %7 = load i64, ptr %arrayidx58, align 8
  %call59 = call i32 @memtest_preserving_test(ptr noundef %6, i64 noundef %7, i32 noundef 1) #22
  %add = add nsw i32 %call59, %errors.050
  %tobool60.not = icmp eq i32 %add, 0
  %cond = select i1 %tobool60.not, ptr @.str.279, ptr @.str.278
  %call61 = call i64 @write(i32 noundef %cond.i40, ptr noundef nonnull %cond, i64 noundef 1) #22
  %indvars.iv.next56 = add nuw nsw i64 %indvars.iv55, 1
  %exitcond.not = icmp eq i64 %indvars.iv.next56, %wide.trip.count
  br i1 %exitcond.not, label %for.end, label %for.body, !llvm.loop !37

for.end:                                          ; preds = %for.body, %while.cond.preheader, %for.cond.preheader
  %errors.0.lcssa = phi i32 [ 0, %for.cond.preheader ], [ 0, %while.cond.preheader ], [ %add, %for.body ]
  %call66 = call i64 @write(i32 noundef %cond.i40, ptr noundef nonnull @.str.280, i64 noundef 1) #22
  %call70 = call i32 @fclose(ptr noundef nonnull %call1)
  %8 = load ptr, ptr getelementptr inbounds (%struct.redisServer, ptr @server, i64 0, i32 250), align 8
  %9 = load i8, ptr %8, align 1
  %cmp.i34 = icmp eq i8 %9, 0
  br i1 %cmp.i34, label %return, label %if.then.i35

if.then.i35:                                      ; preds = %for.end
  %call.i36 = call i32 @close(i32 noundef %cond.i40) #22
  br label %return

return:                                           ; preds = %if.then.i35, %for.end, %if.then.i, %if.then3, %openDirectLogFiledes.exit
  %retval.0 = phi i32 [ 0, %openDirectLogFiledes.exit ], [ 0, %if.then3 ], [ 0, %if.then.i ], [ %errors.0.lcssa, %for.end ], [ %errors.0.lcssa, %if.then.i35 ]
  ret i32 %retval.0
}